target datalayout = "e-m:e-p270:32:32-p271:32:32-p272:64:64-i64:64-i128:128-f80:128-n8:16:32:64-S128"
target triple = "x86_64-pc-linux-gnu"

%struct.RelationData = type { %struct.RelFileLocator, ptr, i32, i32, i8, i8, i8, i8, i8, i32, i32, i32, i32, ptr, ptr, i32, %struct.LockInfoData, ptr, ptr, ptr, ptr, ptr, i8, ptr, ptr, ptr, ptr, ptr, ptr, i32, ptr, i8, ptr, ptr, i32, i8, i32, ptr, i8, ptr, ptr, ptr, ptr, ptr, ptr, ptr, i32, ptr, ptr, ptr, ptr, ptr, ptr, ptr, ptr, ptr, ptr, ptr, ptr, ptr, ptr, ptr, ptr, ptr, ptr, ptr, i32, i8, ptr }
%struct.RelFileLocator = type { i32, i32, i32 }
%struct.LockInfoData = type { %struct.LockRelId }
%struct.LockRelId = type { i32, i32 }
%struct.FormData_pg_class = type { i32, %struct.nameData, i32, i32, i32, i32, i32, i32, i32, i32, float, i32, i32, i8, i8, i8, i8, i16, i16, i8, i8, i8, i8, i8, i8, i8, i8, i32, i32, i32 }
%struct.nameData = type { [64 x i8] }
%struct.IndexAmRoutine = type { i32, i16, i16, i16, i8, i8, i8, i8, i8, i8, i8, i8, i8, i8, i8, i8, i8, i8, i8, i8, i8, i32, ptr, ptr, ptr, ptr, ptr, ptr, ptr, ptr, ptr, ptr, ptr, ptr, ptr, ptr, ptr, ptr, ptr, ptr, ptr, ptr, ptr, ptr, ptr, ptr, ptr, ptr }
%struct.FmgrInfo = type { ptr, i32, i16, i8, i8, i8, ptr, ptr, ptr }

@.str.1 = private unnamed_addr constant [10 x i8] c"indexam.c\00", align 1
@.str.12 = private unnamed_addr constant [59 x i8] c"missing support function %d for attribute %d of index \22%s\22\00", align 1
@__func__.index_getprocinfo = private unnamed_addr constant [18 x i8] c"index_getprocinfo\00", align 1
@CurrentMemoryContext = external global ptr, align 8

; Function Attrs: inlinehint nounwind uwtable
define internal ptr @MemoryContextSwitchTo(ptr noundef %0) #3 {
  %2 = alloca ptr, align 8
  %3 = alloca ptr, align 8
  store ptr %0, ptr %2, align 8
  call void @llvm.lifetime.start.p0(i64 8, ptr %3) #7
  %4 = load ptr, ptr @CurrentMemoryContext, align 8
  store ptr %4, ptr %3, align 8
  %5 = load ptr, ptr %2, align 8
  store ptr %5, ptr @CurrentMemoryContext, align 8
  %6 = load ptr, ptr %3, align 8
  call void @llvm.lifetime.end.p0(i64 8, ptr %3) #7
  ret ptr %6
}

; Function Attrs: nounwind uwtable
define dso_local ptr @index_getprocinfo(ptr noundef %0, i16 noundef signext %1, i16 noundef zeroext %2) #0 {
  %4 = alloca ptr, align 8
  %5 = alloca i16, align 2
  %6 = alloca i16, align 2
  %7 = alloca ptr, align 8
  %8 = alloca i32, align 4
  %9 = alloca i32, align 4
  %10 = alloca i32, align 4
  %11 = alloca ptr, align 8
  %12 = alloca i32, align 4
  %13 = alloca ptr, align 8
  %14 = alloca ptr, align 8
  store ptr %0, ptr %4, align 8
  store i16 %1, ptr %5, align 2
  store i16 %2, ptr %6, align 2
  call void @llvm.lifetime.start.p0(i64 8, ptr %7) #7
  call void @llvm.lifetime.start.p0(i64 4, ptr %8) #7
  call void @llvm.lifetime.start.p0(i64 4, ptr %9) #7
  call void @llvm.lifetime.start.p0(i64 4, ptr %10) #7
  %15 = load ptr, ptr %4, align 8
  %16 = getelementptr inbounds nuw %struct.RelationData, ptr %15, i32 0, i32 51
  %17 = load ptr, ptr %16, align 8
  %18 = getelementptr inbounds nuw %struct.IndexAmRoutine, ptr %17, i32 0, i32 2
  %19 = load i16, ptr %18, align 2
  %20 = zext i16 %19 to i32
  store i32 %20, ptr %8, align 4
  %21 = load ptr, ptr %4, align 8
  %22 = getelementptr inbounds nuw %struct.RelationData, ptr %21, i32 0, i32 51
  %23 = load ptr, ptr %22, align 8
  %24 = getelementptr inbounds nuw %struct.IndexAmRoutine, ptr %23, i32 0, i32 3
  %25 = load i16, ptr %24, align 8
  %26 = zext i16 %25 to i32
  store i32 %26, ptr %9, align 4
  %27 = load i32, ptr %8, align 4
  %28 = load i16, ptr %5, align 2
  %29 = sext i16 %28 to i32
  %30 = sub i32 %29, 1
  %31 = mul i32 %27, %30
  %32 = load i16, ptr %6, align 2
  %33 = zext i16 %32 to i32
  %34 = sub i32 %33, 1
  %35 = add i32 %31, %34
  store i32 %35, ptr %10, align 4
  %36 = load ptr, ptr %4, align 8
  %37 = getelementptr inbounds nuw %struct.RelationData, ptr %36, i32 0, i32 55
  %38 = load ptr, ptr %37, align 8
  store ptr %38, ptr %7, align 8
  %39 = load i32, ptr %10, align 4
  %40 = load ptr, ptr %7, align 8
  %41 = sext i32 %39 to i64
  %42 = getelementptr inbounds %struct.FmgrInfo, ptr %40, i64 %41
  store ptr %42, ptr %7, align 8
  %43 = load ptr, ptr %7, align 8
  %44 = getelementptr inbounds nuw %struct.FmgrInfo, ptr %43, i32 0, i32 1
  %45 = load i32, ptr %44, align 8
  %46 = icmp eq i32 %45, 0
  br i1 %46, label %47, label %107

47:                                               ; preds = %3
  call void @llvm.lifetime.start.p0(i64 8, ptr %11) #7
  %48 = load ptr, ptr %4, align 8
  %49 = getelementptr inbounds nuw %struct.RelationData, ptr %48, i32 0, i32 54
  %50 = load ptr, ptr %49, align 8
  store ptr %50, ptr %11, align 8
  call void @llvm.lifetime.start.p0(i64 4, ptr %12) #7
  %51 = load ptr, ptr %11, align 8
  %52 = load i32, ptr %10, align 4
  %53 = sext i32 %52 to i64
  %54 = getelementptr inbounds i32, ptr %51, i64 %53
  %55 = load i32, ptr %54, align 4
  store i32 %55, ptr %12, align 4
  %56 = load i32, ptr %12, align 4
  %57 = icmp ne i32 %56, 0
  br i1 %57, label %79, label %58

58:                                               ; preds = %47
  br label %59

59:                                               ; preds = %58
  br i1 true, label %60, label %62

60:                                               ; preds = %59
  %61 = call zeroext i1 @errstart_cold(i32 noundef 21, ptr noundef null) #8
  br i1 %61, label %64, label %76

62:                                               ; preds = %59
  %63 = call zeroext i1 @errstart(i32 noundef 21, ptr noundef null)
  br i1 %63, label %64, label %76

64:                                               ; preds = %62, %60
  %65 = load i16, ptr %6, align 2
  %66 = zext i16 %65 to i32
  %67 = load i16, ptr %5, align 2
  %68 = sext i16 %67 to i32
  %69 = load ptr, ptr %4, align 8
  %70 = getelementptr inbounds nuw %struct.RelationData, ptr %69, i32 0, i32 13
  %71 = load ptr, ptr %70, align 8
  %72 = getelementptr inbounds nuw %struct.FormData_pg_class, ptr %71, i32 0, i32 1
  %73 = getelementptr inbounds nuw %struct.nameData, ptr %72, i32 0, i32 0
  %74 = getelementptr inbounds [64 x i8], ptr %73, i64 0, i64 0
  %75 = call i32 (ptr, ...) @errmsg_internal(ptr noundef @.str.12, i32 noundef %66, i32 noundef %68, ptr noundef %74)
  call void @errfinish(ptr noundef @.str.1, i32 noundef 902, ptr noundef @__func__.index_getprocinfo)
  br label %76

76:                                               ; preds = %64, %62, %60
  unreachable

77:                                               ; No predecessors!
  br label %78

78:                                               ; preds = %77
  br label %79

79:                                               ; preds = %78, %47
  %80 = load i32, ptr %12, align 4
  %81 = load ptr, ptr %7, align 8
  %82 = load ptr, ptr %4, align 8
  %83 = getelementptr inbounds nuw %struct.RelationData, ptr %82, i32 0, i32 50
  %84 = load ptr, ptr %83, align 8
  call void @fmgr_info_cxt(i32 noundef %80, ptr noundef %81, ptr noundef %84)
  %85 = load i16, ptr %6, align 2
  %86 = zext i16 %85 to i32
  %87 = load i32, ptr %9, align 4
  %88 = icmp ne i32 %86, %87
  br i1 %88, label %89, label %106

89:                                               ; preds = %79
  call void @llvm.lifetime.start.p0(i64 8, ptr %13) #7
  %90 = load ptr, ptr %4, align 8
  %91 = call ptr @RelationGetIndexAttOptions(ptr noundef %90, i1 noundef zeroext false)
  store ptr %91, ptr %13, align 8
  call void @llvm.lifetime.start.p0(i64 8, ptr %14) #7
  %92 = load ptr, ptr %4, align 8
  %93 = getelementptr inbounds nuw %struct.RelationData, ptr %92, i32 0, i32 50
  %94 = load ptr, ptr %93, align 8
  %95 = call ptr @MemoryContextSwitchTo(ptr noundef %94)
  store ptr %95, ptr %14, align 8
  %96 = load ptr, ptr %7, align 8
  %97 = load ptr, ptr %13, align 8
  %98 = load i16, ptr %5, align 2
  %99 = sext i16 %98 to i32
  %100 = sub i32 %99, 1
  %101 = sext i32 %100 to i64
  %102 = getelementptr inbounds ptr, ptr %97, i64 %101
  %103 = load ptr, ptr %102, align 8
  call void @set_fn_opclass_options(ptr noundef %96, ptr noundef %103)
  %104 = load ptr, ptr %14, align 8
  %105 = call ptr @MemoryContextSwitchTo(ptr noundef %104)
  call void @llvm.lifetime.end.p0(i64 8, ptr %14) #7
  call void @llvm.lifetime.end.p0(i64 8, ptr %13) #7
  br label %106

106:                                              ; preds = %89, %79
  call void @llvm.lifetime.end.p0(i64 4, ptr %12) #7
  call void @llvm.lifetime.end.p0(i64 8, ptr %11) #7
  br label %107

107:                                              ; preds = %106, %3
  %108 = load ptr, ptr %7, align 8
  call void @llvm.lifetime.end.p0(i64 4, ptr %10) #7
  call void @llvm.lifetime.end.p0(i64 4, ptr %9) #7
  call void @llvm.lifetime.end.p0(i64 4, ptr %8) #7
  call void @llvm.lifetime.end.p0(i64 8, ptr %7) #7
  ret ptr %108
}