; Function Attrs: nounwind uwtable
define dso_local ptr @index_getprocinfo(ptr noundef %0, i16 noundef signext %1, i16 noundef zeroext %2) local_unnamed_addr #0 {
  %4 = getelementptr inbounds nuw i8, ptr %0, i64 352
  %5 = load ptr, ptr %4, align 8
  %6 = getelementptr inbounds nuw i8, ptr %5, i64 6
  %7 = load i16, ptr %6, align 2
  %8 = zext i16 %7 to i32
  %9 = getelementptr inbounds nuw i8, ptr %5, i64 8
  %10 = load i16, ptr %9, align 8
  %11 = sext i16 %1 to i32
  %12 = add nsw i32 %11, -1
  %13 = mul i32 %12, %8
  %14 = zext i16 %2 to i32
  %15 = add nsw i32 %14, -1
  %16 = add i32 %15, %13
  %17 = getelementptr inbounds nuw i8, ptr %0, i64 384
  %18 = load ptr, ptr %17, align 8
  %19 = sext i32 %16 to i64
  %20 = getelementptr inbounds %struct.FmgrInfo, ptr %18, i64 %19
  %21 = getelementptr inbounds nuw i8, ptr %20, i64 8
  %22 = load i32, ptr %21, align 8
  %23 = icmp eq i32 %22, 0
  br i1 %23, label %24, label %45

24:                                               ; preds = %3
  %25 = getelementptr inbounds nuw i8, ptr %0, i64 376
  %26 = load ptr, ptr %25, align 8
  %27 = getelementptr inbounds i32, ptr %26, i64 %19
  %28 = load i32, ptr %27, align 4
  %.not = icmp eq i32 %28, 0
  br i1 %.not, label %29, label %35

29:                                               ; preds = %24
  %30 = tail call zeroext i1 @errstart_cold(i32 noundef 21, ptr noundef null) #8
  tail call void @llvm.assume(i1 %30)
  %31 = getelementptr inbounds nuw i8, ptr %0, i64 56
  %32 = load ptr, ptr %31, align 8
  %33 = getelementptr inbounds nuw i8, ptr %32, i64 4
  %34 = tail call i32 (ptr, ...) @errmsg_internal(ptr noundef nonnull @.str.12, i32 noundef %14, i32 noundef %11, ptr noundef nonnull %33) #7
  tail call void @errfinish(ptr noundef nonnull @.str.1, i32 noundef 902, ptr noundef nonnull @__func__.index_getprocinfo) #7
  unreachable

35:                                               ; preds = %24
  %36 = getelementptr inbounds nuw i8, ptr %0, i64 344
  %37 = load ptr, ptr %36, align 8
  tail call void @fmgr_info_cxt(i32 noundef %28, ptr noundef nonnull %20, ptr noundef %37) #7
  %.not27 = icmp eq i16 %2, %10
  br i1 %.not27, label %45, label %38

38:                                               ; preds = %35
  %39 = tail call ptr @RelationGetIndexAttOptions(ptr noundef nonnull %0, i1 noundef zeroext false) #7
  %40 = load ptr, ptr %36, align 8
  %41 = load ptr, ptr @CurrentMemoryContext, align 8
  store ptr %40, ptr @CurrentMemoryContext, align 8
  %42 = sext i32 %12 to i64
  %43 = getelementptr inbounds ptr, ptr %39, i64 %42
  %44 = load ptr, ptr %43, align 8
  tail call void @set_fn_opclass_options(ptr noundef nonnull %20, ptr noundef %44) #7
  store ptr %41, ptr @CurrentMemoryContext, align 8
  br label %45

45:                                               ; preds = %35, %38, %3
  ret ptr %20
}